target datalayout = "e-m:e-p270:32:32-p271:32:32-p272:64:64-i64:64-i128:128-f80:128-n8:16:32:64-S128"
target triple = "x86_64-pc-linux-gnu"

%struct.PlanState = type { i32, ptr, ptr, ptr, ptr, ptr, ptr, ptr, ptr, ptr, ptr, ptr, ptr, ptr, ptr, ptr, ptr, ptr, i8, ptr, ptr, ptr, ptr, ptr, i8, i8, i8, i8, i8, i8, i8, i8 }
%struct.BitmapHeapScanState = type { %struct.ScanState, ptr, ptr, i32, %struct.BitmapHeapScanInstrumentation, %struct.TBMIterator, i32, i32, i32, i8, ptr, ptr, i8, i32, i32 }
%struct.ScanState = type { %struct.PlanState, ptr, ptr, ptr }
%struct.BitmapHeapScanInstrumentation = type { i64, i64 }
%struct.TBMIterator = type { i8, %union.anon }
%union.anon = type { ptr }
%struct.Plan = type { i32, i32, double, double, double, i32, i8, i8, i8, i32, ptr, ptr, ptr, ptr, ptr, ptr, ptr }
%struct.ParallelWorkerContext = type { ptr, ptr }

; Function Attrs: nounwind uwtable
define dso_local void @ExecBitmapHeapInitializeWorker(ptr noundef %0, ptr noundef %1) #0 {
  %3 = alloca ptr, align 8
  %4 = alloca ptr, align 8
  %5 = alloca ptr, align 8
  store ptr %0, ptr %3, align 8
  store ptr %1, ptr %4, align 8
  call void @llvm.lifetime.start.p0(i64 8, ptr %5) #8
  %6 = load ptr, ptr %4, align 8
  %7 = getelementptr inbounds nuw %struct.ParallelWorkerContext, ptr %6, i32 0, i32 1
  %8 = load ptr, ptr %7, align 8
  %9 = load ptr, ptr %3, align 8
  %10 = getelementptr inbounds nuw %struct.BitmapHeapScanState, ptr %9, i32 0, i32 0
  %11 = getelementptr inbounds nuw %struct.ScanState, ptr %10, i32 0, i32 0
  %12 = getelementptr inbounds nuw %struct.PlanState, ptr %11, i32 0, i32 1
  %13 = load ptr, ptr %12, align 8
  %14 = getelementptr inbounds nuw %struct.Plan, ptr %13, i32 0, i32 9
  %15 = load i32, ptr %14, align 8
  %16 = sext i32 %15 to i64
  %17 = call ptr @shm_toc_lookup(ptr noundef %8, i64 noundef %16, i1 noundef zeroext false)
  store ptr %17, ptr %5, align 8
  %18 = load ptr, ptr %5, align 8
  %19 = load ptr, ptr %3, align 8
  %20 = getelementptr inbounds nuw %struct.BitmapHeapScanState, ptr %19, i32 0, i32 10
  store ptr %18, ptr %20, align 8
  %21 = load ptr, ptr %5, align 8
  %22 = getelementptr inbounds nuw i8, ptr %21, i64 48
  store ptr %22, ptr %5, align 8
  %23 = load ptr, ptr %3, align 8
  %24 = getelementptr inbounds nuw %struct.BitmapHeapScanState, ptr %23, i32 0, i32 0
  %25 = getelementptr inbounds nuw %struct.ScanState, ptr %24, i32 0, i32 0
  %26 = getelementptr inbounds nuw %struct.PlanState, ptr %25, i32 0, i32 5
  %27 = load ptr, ptr %26, align 8
  %28 = icmp ne ptr %27, null
  br i1 %28, label %29, label %33

29:                                               ; preds = %2
  %30 = load ptr, ptr %5, align 8
  %31 = load ptr, ptr %3, align 8
  %32 = getelementptr inbounds nuw %struct.BitmapHeapScanState, ptr %31, i32 0, i32 11
  store ptr %30, ptr %32, align 8
  br label %33

33:                                               ; preds = %29, %2
  call void @llvm.lifetime.end.p0(i64 8, ptr %5) #8
  ret void
}