; Function Attrs: nounwind uwtable
define dso_local void @ExecBitmapHeapInitializeWorker(ptr noundef captures(none) initializes((296, 304)) %0, ptr noundef readonly captures(none) %1) local_unnamed_addr #0 {
  %3 = getelementptr inbounds nuw i8, ptr %1, i64 8
  %4 = load ptr, ptr %3, align 8
  %5 = getelementptr inbounds nuw i8, ptr %0, i64 8
  %6 = load ptr, ptr %5, align 8
  %7 = getelementptr inbounds nuw i8, ptr %6, i64 40
  %8 = load i32, ptr %7, align 8
  %9 = sext i32 %8 to i64
  %10 = tail call ptr @shm_toc_lookup(ptr noundef %4, i64 noundef %9, i1 noundef zeroext false) #7
  %11 = getelementptr inbounds nuw i8, ptr %0, i64 296
  store ptr %10, ptr %11, align 8
  %12 = getelementptr inbounds nuw i8, ptr %0, i64 40
  %13 = load ptr, ptr %12, align 8
  %.not = icmp eq ptr %13, null
  br i1 %.not, label %17, label %14

14:                                               ; preds = %2
  %15 = getelementptr inbounds nuw i8, ptr %10, i64 48
  %16 = getelementptr inbounds nuw i8, ptr %0, i64 304
  store ptr %15, ptr %16, align 8
  br label %17

17:                                               ; preds = %14, %2
  ret void
}